target datalayout = "e-m:e-p270:32:32-p271:32:32-p272:64:64-i64:64-i128:128-f80:128-n8:16:32:64-S128"
target triple = "x86_64-pc-linux-gnu"

%"class.icu_77::RBBITableBuilder" = type <{ ptr, ptr, ptr, ptr, ptr, ptr, i32, [4 x i8] }>
%"class.icu_77::UVector" = type { %"class.icu_77::UObject", i32, i32, ptr, ptr, ptr }
%"class.icu_77::UObject" = type { ptr }
%"class.icu_77::RBBIRuleBuilder" = type { ptr, ptr, ptr, ptr, ptr, %"class.icu_77::UnicodeString", ptr, ptr, ptr, ptr, ptr, ptr, i8, i8, ptr, ptr, ptr, ptr }
%"class.icu_77::UnicodeString" = type { %"class.icu_77::Replaceable", %"union.icu_77::UnicodeString::StackBufferOrFields" }
%"class.icu_77::Replaceable" = type { %"class.icu_77::UObject" }
%"union.icu_77::UnicodeString::StackBufferOrFields" = type { %struct.anon.0, [32 x i8] }
%struct.anon.0 = type { i16, i32, i32, ptr }
%"class.icu_77::RBBIStateDescriptor" = type { i8, i32, i32, ptr, i32, ptr, ptr }
%"class.icu_77::UVector32" = type { %"class.icu_77::UObject", i32, i32, i32, ptr }
%"struct.std::pair" = type { i32, i32 }

; Function Attrs: inlinehint mustprogress nounwind uwtable
define linkonce_odr noundef i32 @_ZNK6icu_779UVector3210elementAtiEi(ptr noundef nonnull align 8 dereferenceable(32) %0, i32 noundef %1) #1 comdat align 2 {
  %3 = alloca ptr, align 8
  %4 = alloca i32, align 4
  store ptr %0, ptr %3, align 8, !tbaa !110
  store i32 %1, ptr %4, align 4, !tbaa !26
  %5 = load ptr, ptr %3, align 8
  %6 = load i32, ptr %4, align 4, !tbaa !26
  %7 = icmp sge i32 %6, 0
  br i1 %7, label %8, label %25

8:                                                ; preds = %2
  %9 = getelementptr inbounds nuw %"class.icu_77::UVector32", ptr %5, i32 0, i32 1
  %10 = load i32, ptr %9, align 8, !tbaa !111
  %11 = icmp sgt i32 %10, 0
  br i1 %11, label %12, label %25

12:                                               ; preds = %8
  %13 = getelementptr inbounds nuw %"class.icu_77::UVector32", ptr %5, i32 0, i32 1
  %14 = load i32, ptr %13, align 8, !tbaa !111
  %15 = load i32, ptr %4, align 4, !tbaa !26
  %16 = sub nsw i32 %14, %15
  %17 = icmp sgt i32 %16, 0
  br i1 %17, label %18, label %25

18:                                               ; preds = %12
  %19 = getelementptr inbounds nuw %"class.icu_77::UVector32", ptr %5, i32 0, i32 4
  %20 = load ptr, ptr %19, align 8, !tbaa !114
  %21 = load i32, ptr %4, align 4, !tbaa !26
  %22 = sext i32 %21 to i64
  %23 = getelementptr inbounds i32, ptr %20, i64 %22
  %24 = load i32, ptr %23, align 4, !tbaa !26
  br label %26

25:                                               ; preds = %12, %8, %2
  br label %26

26:                                               ; preds = %25, %18
  %27 = phi i32 [ %24, %18 ], [ 0, %25 ]
  ret i32 %27
}

; Function Attrs: inlinehint mustprogress nounwind uwtable
define linkonce_odr noundef i32 @_ZNK6icu_777UVector4sizeEv(ptr noundef nonnull align 8 dereferenceable(40) %0) #1 comdat align 2 {
  %2 = alloca ptr, align 8
  store ptr %0, ptr %2, align 8, !tbaa !31
  %3 = load ptr, ptr %2, align 8
  %4 = getelementptr inbounds nuw %"class.icu_77::UVector", ptr %3, i32 0, i32 1
  %5 = load i32, ptr %4, align 8, !tbaa !32
  ret i32 %5
}

; Function Attrs: mustprogress uwtable
define noundef zeroext i1 @_ZN6icu_7716RBBITableBuilder21findDuplCharClassFromEPSt4pairIiiE(ptr noundef nonnull align 8 dereferenceable(52) %0, ptr noundef %1) #0 align 2 {
  %3 = alloca i1, align 1
  %4 = alloca ptr, align 8
  %5 = alloca ptr, align 8
  %6 = alloca i32, align 4
  %7 = alloca i32, align 4
  %8 = alloca i32, align 4
  %9 = alloca i16, align 2
  %10 = alloca i16, align 2
  %11 = alloca i32, align 4
  %12 = alloca i32, align 4
  %13 = alloca ptr, align 8
  store ptr %0, ptr %4, align 8, !tbaa !3
  store ptr %1, ptr %5, align 8, !tbaa !124
  %14 = load ptr, ptr %4, align 8
  call void @llvm.lifetime.start.p0(i64 4, ptr %6) #11
  %15 = getelementptr inbounds nuw %"class.icu_77::RBBITableBuilder", ptr %14, i32 0, i32 3
  %16 = load ptr, ptr %15, align 8, !tbaa !20
  %17 = call noundef i32 @_ZNK6icu_777UVector4sizeEv(ptr noundef nonnull align 8 dereferenceable(40) %16)
  store i32 %17, ptr %6, align 4, !tbaa !26
  call void @llvm.lifetime.start.p0(i64 4, ptr %7) #11
  %18 = getelementptr inbounds nuw %"class.icu_77::RBBITableBuilder", ptr %14, i32 0, i32 0
  %19 = load ptr, ptr %18, align 8, !tbaa !14
  %20 = getelementptr inbounds nuw %"class.icu_77::RBBIRuleBuilder", ptr %19, i32 0, i32 14
  %21 = load ptr, ptr %20, align 8, !tbaa !39
  %22 = call noundef i32 @_ZNK6icu_7714RBBISetBuilder20getNumCharCategoriesEv(ptr noundef nonnull align 8 dereferenceable(53) %21)
  store i32 %22, ptr %7, align 4, !tbaa !26
  br label %23

23:                                               ; preds = %123, %2
  %24 = load ptr, ptr %5, align 8, !tbaa !124
  %25 = getelementptr inbounds nuw %"struct.std::pair", ptr %24, i32 0, i32 0
  %26 = load i32, ptr %25, align 4, !tbaa !126
  %27 = load i32, ptr %7, align 4, !tbaa !26
  %28 = sub nsw i32 %27, 1
  %29 = icmp slt i32 %26, %28
  br i1 %29, label %30, label %128

30:                                               ; preds = %23
  call void @llvm.lifetime.start.p0(i64 4, ptr %8) #11
  %31 = load ptr, ptr %5, align 8, !tbaa !124
  %32 = getelementptr inbounds nuw %"struct.std::pair", ptr %31, i32 0, i32 0
  %33 = load i32, ptr %32, align 4, !tbaa !126
  %34 = getelementptr inbounds nuw %"class.icu_77::RBBITableBuilder", ptr %14, i32 0, i32 0
  %35 = load ptr, ptr %34, align 8, !tbaa !14
  %36 = getelementptr inbounds nuw %"class.icu_77::RBBIRuleBuilder", ptr %35, i32 0, i32 14
  %37 = load ptr, ptr %36, align 8, !tbaa !39
  %38 = call noundef i32 @_ZNK6icu_7714RBBISetBuilder22getDictCategoriesStartEv(ptr noundef nonnull align 8 dereferenceable(53) %37)
  %39 = icmp slt i32 %33, %38
  br i1 %39, label %40, label %46

40:                                               ; preds = %30
  %41 = getelementptr inbounds nuw %"class.icu_77::RBBITableBuilder", ptr %14, i32 0, i32 0
  %42 = load ptr, ptr %41, align 8, !tbaa !14
  %43 = getelementptr inbounds nuw %"class.icu_77::RBBIRuleBuilder", ptr %42, i32 0, i32 14
  %44 = load ptr, ptr %43, align 8, !tbaa !39
  %45 = call noundef i32 @_ZNK6icu_7714RBBISetBuilder22getDictCategoriesStartEv(ptr noundef nonnull align 8 dereferenceable(53) %44)
  br label %48

46:                                               ; preds = %30
  %47 = load i32, ptr %7, align 4, !tbaa !26
  br label %48

48:                                               ; preds = %46, %40
  %49 = phi i32 [ %45, %40 ], [ %47, %46 ]
  store i32 %49, ptr %8, align 4, !tbaa !26
  %50 = load ptr, ptr %5, align 8, !tbaa !124
  %51 = getelementptr inbounds nuw %"struct.std::pair", ptr %50, i32 0, i32 0
  %52 = load i32, ptr %51, align 4, !tbaa !126
  %53 = add nsw i32 %52, 1
  %54 = load ptr, ptr %5, align 8, !tbaa !124
  %55 = getelementptr inbounds nuw %"struct.std::pair", ptr %54, i32 0, i32 1
  store i32 %53, ptr %55, align 4, !tbaa !128
  br label %56

56:                                               ; preds = %114, %48
  %57 = load ptr, ptr %5, align 8, !tbaa !124
  %58 = getelementptr inbounds nuw %"struct.std::pair", ptr %57, i32 0, i32 1
  %59 = load i32, ptr %58, align 4, !tbaa !128
  %60 = load i32, ptr %8, align 4, !tbaa !26
  %61 = icmp slt i32 %59, %60
  br i1 %61, label %62, label %119

62:                                               ; preds = %56
  call void @llvm.lifetime.start.p0(i64 2, ptr %9) #11
  store i16 0, ptr %9, align 2, !tbaa !129
  call void @llvm.lifetime.start.p0(i64 2, ptr %10) #11
  store i16 1, ptr %10, align 2, !tbaa !129
  call void @llvm.lifetime.start.p0(i64 4, ptr %11) #11
  store i32 0, ptr %11, align 4, !tbaa !26
  br label %63

63:                                               ; preds = %99, %62
  %64 = load i32, ptr %11, align 4, !tbaa !26
  %65 = load i32, ptr %6, align 4, !tbaa !26
  %66 = icmp slt i32 %64, %65
  br i1 %66, label %68, label %67

67:                                               ; preds = %63
  store i32 8, ptr %12, align 4
  br label %102

68:                                               ; preds = %63
  call void @llvm.lifetime.start.p0(i64 8, ptr %13) #11
  %69 = getelementptr inbounds nuw %"class.icu_77::RBBITableBuilder", ptr %14, i32 0, i32 3
  %70 = load ptr, ptr %69, align 8, !tbaa !20
  %71 = load i32, ptr %11, align 4, !tbaa !26
  %72 = call noundef ptr @_ZNK6icu_777UVector9elementAtEi(ptr noundef nonnull align 8 dereferenceable(40) %70, i32 noundef %71)
  store ptr %72, ptr %13, align 8, !tbaa !70
  %73 = load ptr, ptr %13, align 8, !tbaa !70
  %74 = getelementptr inbounds nuw %"class.icu_77::RBBIStateDescriptor", ptr %73, i32 0, i32 6
  %75 = load ptr, ptr %74, align 8, !tbaa !79
  %76 = load ptr, ptr %5, align 8, !tbaa !124
  %77 = getelementptr inbounds nuw %"struct.std::pair", ptr %76, i32 0, i32 0
  %78 = load i32, ptr %77, align 4, !tbaa !126
  %79 = call noundef i32 @_ZNK6icu_779UVector3210elementAtiEi(ptr noundef nonnull align 8 dereferenceable(32) %75, i32 noundef %78)
  %80 = trunc i32 %79 to i16
  store i16 %80, ptr %9, align 2, !tbaa !129
  %81 = load ptr, ptr %13, align 8, !tbaa !70
  %82 = getelementptr inbounds nuw %"class.icu_77::RBBIStateDescriptor", ptr %81, i32 0, i32 6
  %83 = load ptr, ptr %82, align 8, !tbaa !79
  %84 = load ptr, ptr %5, align 8, !tbaa !124
  %85 = getelementptr inbounds nuw %"struct.std::pair", ptr %84, i32 0, i32 1
  %86 = load i32, ptr %85, align 4, !tbaa !128
  %87 = call noundef i32 @_ZNK6icu_779UVector3210elementAtiEi(ptr noundef nonnull align 8 dereferenceable(32) %83, i32 noundef %86)
  %88 = trunc i32 %87 to i16
  store i16 %88, ptr %10, align 2, !tbaa !129
  %89 = load i16, ptr %9, align 2, !tbaa !129
  %90 = zext i16 %89 to i32
  %91 = load i16, ptr %10, align 2, !tbaa !129
  %92 = zext i16 %91 to i32
  %93 = icmp ne i32 %90, %92
  br i1 %93, label %94, label %95

94:                                               ; preds = %68
  store i32 8, ptr %12, align 4
  br label %96

95:                                               ; preds = %68
  store i32 0, ptr %12, align 4
  br label %96

96:                                               ; preds = %95, %94
  call void @llvm.lifetime.end.p0(i64 8, ptr %13) #11
  %97 = load i32, ptr %12, align 4
  switch i32 %97, label %102 [
    i32 0, label %98
  ]

98:                                               ; preds = %96
  br label %99

99:                                               ; preds = %98
  %100 = load i32, ptr %11, align 4, !tbaa !26
  %101 = add nsw i32 %100, 1
  store i32 %101, ptr %11, align 4, !tbaa !26
  br label %63, !llvm.loop !131

102:                                              ; preds = %96, %67
  call void @llvm.lifetime.end.p0(i64 4, ptr %11) #11
  br label %103

103:                                              ; preds = %102
  %104 = load i16, ptr %9, align 2, !tbaa !129
  %105 = zext i16 %104 to i32
  %106 = load i16, ptr %10, align 2, !tbaa !129
  %107 = zext i16 %106 to i32
  %108 = icmp eq i32 %105, %107
  br i1 %108, label %109, label %110

109:                                              ; preds = %103
  store i1 true, ptr %3, align 1
  store i32 1, ptr %12, align 4
  br label %111

110:                                              ; preds = %103
  store i32 0, ptr %12, align 4
  br label %111

111:                                              ; preds = %110, %109
  call void @llvm.lifetime.end.p0(i64 2, ptr %10) #11
  call void @llvm.lifetime.end.p0(i64 2, ptr %9) #11
  %112 = load i32, ptr %12, align 4
  switch i32 %112, label %120 [
    i32 0, label %113
  ]

113:                                              ; preds = %111
  br label %114

114:                                              ; preds = %113
  %115 = load ptr, ptr %5, align 8, !tbaa !124
  %116 = getelementptr inbounds nuw %"struct.std::pair", ptr %115, i32 0, i32 1
  %117 = load i32, ptr %116, align 4, !tbaa !128
  %118 = add nsw i32 %117, 1
  store i32 %118, ptr %116, align 4, !tbaa !128
  br label %56, !llvm.loop !132

119:                                              ; preds = %56
  store i32 0, ptr %12, align 4
  br label %120

120:                                              ; preds = %119, %111
  call void @llvm.lifetime.end.p0(i64 4, ptr %8) #11
  %121 = load i32, ptr %12, align 4
  switch i32 %121, label %129 [
    i32 0, label %122
  ]

122:                                              ; preds = %120
  br label %123

123:                                              ; preds = %122
  %124 = load ptr, ptr %5, align 8, !tbaa !124
  %125 = getelementptr inbounds nuw %"struct.std::pair", ptr %124, i32 0, i32 0
  %126 = load i32, ptr %125, align 4, !tbaa !126
  %127 = add nsw i32 %126, 1
  store i32 %127, ptr %125, align 4, !tbaa !126
  br label %23, !llvm.loop !133

128:                                              ; preds = %23
  store i1 false, ptr %3, align 1
  store i32 1, ptr %12, align 4
  br label %129

129:                                              ; preds = %128, %120
  call void @llvm.lifetime.end.p0(i64 4, ptr %7) #11
  call void @llvm.lifetime.end.p0(i64 4, ptr %6) #11
  %130 = load i1, ptr %3, align 1
  ret i1 %130
}