; Function Attrs: mustprogress uwtable
define noundef zeroext i1 @_ZN6icu_7716RBBITableBuilder21findDuplCharClassFromEPSt4pairIiiE(ptr noundef nonnull readonly align 8 captures(none) dereferenceable(52) %0, ptr noundef captures(none) %1) local_unnamed_addr #0 align 2 {
  %3 = getelementptr inbounds nuw i8, ptr %0, i64 24
  %4 = load ptr, ptr %3, align 8, !tbaa !19
  %5 = getelementptr inbounds nuw i8, ptr %4, i64 8
  %6 = load i32, ptr %5, align 8, !tbaa !20
  %.fr50 = freeze i32 %6
  %7 = load ptr, ptr %0, align 8, !tbaa !3
  %8 = getelementptr inbounds nuw i8, ptr %7, i64 160
  %9 = load ptr, ptr %8, align 8, !tbaa !33
  %10 = tail call noundef i32 @_ZNK6icu_7714RBBISetBuilder20getNumCharCategoriesEv(ptr noundef nonnull align 8 dereferenceable(53) %9)
  %11 = add nsw i32 %10, -1
  %12 = load i32, ptr %1, align 4, !tbaa !107
  %13 = icmp slt i32 %12, %11
  br i1 %13, label %.lr.ph, label %.loopexit

.lr.ph:                                           ; preds = %2
  %14 = getelementptr inbounds nuw i8, ptr %1, i64 4
  %15 = icmp sgt i32 %.fr50, 0
  br i1 %15, label %.lr.ph.split.us, label %.lr.ph.split.split

.lr.ph.split.us:                                  ; preds = %.lr.ph, %.critedge.split.us.us
  %16 = phi i32 [ %59, %.critedge.split.us.us ], [ %12, %.lr.ph ]
  %17 = load ptr, ptr %0, align 8, !tbaa !3
  %18 = getelementptr inbounds nuw i8, ptr %17, i64 160
  %19 = load ptr, ptr %18, align 8, !tbaa !33
  %20 = tail call noundef i32 @_ZNK6icu_7714RBBISetBuilder22getDictCategoriesStartEv(ptr noundef nonnull align 8 dereferenceable(53) %19)
  %21 = icmp slt i32 %16, %20
  br i1 %21, label %22, label %.split.us.us

22:                                               ; preds = %.lr.ph.split.us
  %23 = load ptr, ptr %0, align 8, !tbaa !3
  %24 = getelementptr inbounds nuw i8, ptr %23, i64 160
  %25 = load ptr, ptr %24, align 8, !tbaa !33
  %26 = tail call noundef i32 @_ZNK6icu_7714RBBISetBuilder22getDictCategoriesStartEv(ptr noundef nonnull align 8 dereferenceable(53) %25)
  br label %.split.us.us

.split.us.us:                                     ; preds = %22, %.lr.ph.split.us
  %27 = phi i32 [ %26, %22 ], [ %10, %.lr.ph.split.us ]
  %storemerge.in.us.us.pre = load i32, ptr %1, align 4, !tbaa !77
  %storemerge.us.us66 = add nsw i32 %storemerge.in.us.us.pre, 1
  store i32 %storemerge.us.us66, ptr %14, align 4, !tbaa !109
  %.not38.us.us67 = icmp slt i32 %storemerge.us.us66, %27
  br i1 %.not38.us.us67, label %.preheader.us.us, label %.critedge.split.us.us

28:                                               ; preds = %._crit_edge.us.us
  %storemerge.us.us = add nsw i32 %45, 1
  store i32 %storemerge.us.us, ptr %14, align 4, !tbaa !109
  %.not38.us.us = icmp slt i32 %storemerge.us.us, %27
  br i1 %.not38.us.us, label %.preheader.us.us.backedge, label %.critedge.split.us.us

.preheader.us.us:                                 ; preds = %.split.us.us, %.preheader.us.us.backedge
  %.03143.us.us = phi i32 [ %.03143.us.us.be, %.preheader.us.us.backedge ], [ 0, %.split.us.us ]
  %29 = load ptr, ptr %3, align 8, !tbaa !19
  %30 = tail call noundef ptr @_ZNK6icu_777UVector9elementAtEi(ptr noundef nonnull align 8 dereferenceable(40) %29, i32 noundef %.03143.us.us)
  %31 = getelementptr inbounds nuw i8, ptr %30, i64 40
  %32 = load ptr, ptr %31, align 8, !tbaa !68
  %33 = load i32, ptr %1, align 4, !tbaa !107
  %34 = icmp sgt i32 %33, -1
  %35 = getelementptr inbounds nuw i8, ptr %32, i64 8
  %36 = load i32, ptr %35, align 8
  %37 = icmp sgt i32 %36, %33
  %or.cond.i.us.us = select i1 %34, i1 %37, i1 false
  br i1 %or.cond.i.us.us, label %38, label %_ZNK6icu_779UVector3210elementAtiEi.exit.us.us

38:                                               ; preds = %.preheader.us.us
  %39 = getelementptr inbounds nuw i8, ptr %32, i64 24
  %40 = load ptr, ptr %39, align 8, !tbaa !74
  %41 = zext nneg i32 %33 to i64
  %42 = getelementptr inbounds nuw i32, ptr %40, i64 %41
  %43 = load i32, ptr %42, align 4, !tbaa !77
  br label %_ZNK6icu_779UVector3210elementAtiEi.exit.us.us

_ZNK6icu_779UVector3210elementAtiEi.exit.us.us:   ; preds = %38, %.preheader.us.us
  %44 = phi i32 [ %43, %38 ], [ 0, %.preheader.us.us ]
  %45 = load i32, ptr %14, align 4, !tbaa !109
  %46 = icmp sgt i32 %45, -1
  %47 = icmp sgt i32 %36, %45
  %or.cond.i39.us.us = select i1 %46, i1 %47, i1 false
  br i1 %or.cond.i39.us.us, label %48, label %_ZNK6icu_779UVector3210elementAtiEi.exit40.us.us

48:                                               ; preds = %_ZNK6icu_779UVector3210elementAtiEi.exit.us.us
  %49 = getelementptr inbounds nuw i8, ptr %32, i64 24
  %50 = load ptr, ptr %49, align 8, !tbaa !74
  %51 = zext nneg i32 %45 to i64
  %52 = getelementptr inbounds nuw i32, ptr %50, i64 %51
  %53 = load i32, ptr %52, align 4, !tbaa !77
  br label %_ZNK6icu_779UVector3210elementAtiEi.exit40.us.us

_ZNK6icu_779UVector3210elementAtiEi.exit40.us.us: ; preds = %48, %_ZNK6icu_779UVector3210elementAtiEi.exit.us.us
  %54 = phi i32 [ %53, %48 ], [ 0, %_ZNK6icu_779UVector3210elementAtiEi.exit.us.us ]
  %55 = xor i32 %54, %44
  %56 = and i32 %55, 65535
  %.not.us.us = icmp eq i32 %56, 0
  %57 = add nuw nsw i32 %.03143.us.us, 1
  %58 = icmp slt i32 %57, %.fr50
  %or.cond = select i1 %.not.us.us, i1 %58, i1 false
  br i1 %or.cond, label %.preheader.us.us.backedge, label %._crit_edge.us.us

.preheader.us.us.backedge:                        ; preds = %_ZNK6icu_779UVector3210elementAtiEi.exit40.us.us, %28
  %.03143.us.us.be = phi i32 [ %57, %_ZNK6icu_779UVector3210elementAtiEi.exit40.us.us ], [ 0, %28 ]
  br label %.preheader.us.us, !llvm.loop !110

._crit_edge.us.us:                                ; preds = %_ZNK6icu_779UVector3210elementAtiEi.exit40.us.us
  br i1 %.not.us.us, label %.loopexit, label %28, !llvm.loop !110

.critedge.split.us.us:                            ; preds = %28, %.split.us.us
  %.lcssa64 = phi i32 [ %storemerge.in.us.us.pre, %.split.us.us ], [ %33, %28 ]
  %59 = add nsw i32 %.lcssa64, 1
  store i32 %59, ptr %1, align 4, !tbaa !107
  %60 = icmp slt i32 %59, %11
  br i1 %60, label %.lr.ph.split.us, label %.loopexit, !llvm.loop !111

.lr.ph.split.split:                               ; preds = %.lr.ph, %.critedge.split
  %61 = phi i32 [ %73, %.critedge.split ], [ %12, %.lr.ph ]
  %62 = load ptr, ptr %0, align 8, !tbaa !3
  %63 = getelementptr inbounds nuw i8, ptr %62, i64 160
  %64 = load ptr, ptr %63, align 8, !tbaa !33
  %65 = tail call noundef i32 @_ZNK6icu_7714RBBISetBuilder22getDictCategoriesStartEv(ptr noundef nonnull align 8 dereferenceable(53) %64)
  %66 = icmp slt i32 %61, %65
  br i1 %66, label %67, label %.split

67:                                               ; preds = %.lr.ph.split.split
  %68 = load ptr, ptr %0, align 8, !tbaa !3
  %69 = getelementptr inbounds nuw i8, ptr %68, i64 160
  %70 = load ptr, ptr %69, align 8, !tbaa !33
  %71 = tail call noundef i32 @_ZNK6icu_7714RBBISetBuilder22getDictCategoriesStartEv(ptr noundef nonnull align 8 dereferenceable(53) %70)
  br label %.split

.split:                                           ; preds = %.lr.ph.split.split, %67
  %72 = phi i32 [ %71, %67 ], [ %10, %.lr.ph.split.split ]
  %storemerge.in.pre = load i32, ptr %1, align 4, !tbaa !77
  br label %.preheader

.preheader:                                       ; preds = %.preheader, %.split
  %storemerge.in = phi i32 [ %storemerge.in.pre, %.split ], [ %storemerge, %.preheader ]
  %storemerge = add nsw i32 %storemerge.in, 1
  %.not38 = icmp slt i32 %storemerge, %72
  br i1 %.not38, label %.preheader, label %.critedge.split

.critedge.split:                                  ; preds = %.preheader
  store i32 %storemerge, ptr %14, align 4, !tbaa !109
  %73 = add nsw i32 %storemerge.in.pre, 1
  store i32 %73, ptr %1, align 4, !tbaa !107
  %74 = icmp slt i32 %73, %11
  br i1 %74, label %.lr.ph.split.split, label %.loopexit, !llvm.loop !111

.loopexit:                                        ; preds = %.critedge.split, %.critedge.split.us.us, %._crit_edge.us.us, %2
  %75 = phi i1 [ false, %2 ], [ true, %._crit_edge.us.us ], [ false, %.critedge.split.us.us ], [ false, %.critedge.split ]
  ret i1 %75
}